(lp0
VMMM
p1
aVABT
p2
aVABBV
p3
aVABMD
p4
aVACN
p5
aVATVI
p6
aVADBE
p7
aVAMD
p8
aVAAP
p9
aVAES
p10
aVAFL
p11
aVA
p12
aVAPD
p13
aVAKAM
p14
aVALK
p15
aVALB
p16
aVARE
p17
aVALXN
p18
aVALGN
p19
aVALLE
p20
aVAGN
p21
aVADS
p22
aVLNT
p23
aVALL
p24
aVGOOGL
p25
aVGOOG
p26
aVMO
p27
aVAMZN
p28
aVAMCR
p29
aVAEE
p30
aVAAL
p31
aVAEP
p32
aVAXP
p33
aVAIG
p34
aVAMT
p35
aVAWK
p36
aVAMP
p37
aVABC
p38
aVAME
p39
aVAMGN
p40
aVAPH
p41
aVADI
p42
aVANSS
p43
aVANTM
p44
aVAON
p45
aVAOS
p46
aVAPA
p47
aVAIV
p48
aVAAPL
p49
aVAMAT
p50
aVAPTV
p51
aVADM
p52
aVANET
p53
aVAJG
p54
aVAIZ
p55
aVT
p56
aVATO
p57
aVADSK
p58
aVADP
p59
aVAZO
p60
aVAVB
p61
aVAVY
p62
aVBKR
p63
aVBLL
p64
aVBAC
p65
aVBK
p66
aVBAX
p67
aVBDX
p68
aVBRK-B
p69
aVBBY
p70
aVBIIB
p71
aVBLK
p72
aVBA
p73
aVBKNG
p74
aVBWA
p75
aVBXP
p76
aVBSX
p77
aVBMY
p78
aVAVGO
p79
aVBR
p80
aVBF-B
p81
aVCHRW
p82
aVCOG
p83
aVCDNS
p84
aVCPB
p85
aVCOF
p86
aVCPRI
p87
aVCAH
p88
aVKMX
p89
aVCCL
p90
aVCARR
p91
aVCAT
p92
aVCBOE
p93
aVCBRE
p94
aVCDW
p95
aVCE
p96
aVCNC
p97
aVCNP
p98
aVCTL
p99
aVCERN
p100
aVCF
p101
aVSCHW
p102
aVCHTR
p103
aVCVX
p104
aVCMG
p105
aVCB
p106
aVCHD
p107
aVCI
p108
aVCINF
p109
aVCTAS
p110
aVCSCO
p111
aVC
p112
aVCFG
p113
aVCTXS
p114
aVCLX
p115
aVCME
p116
aVCMS
p117
aVKO
p118
aVCTSH
p119
aVCL
p120
aVCMCSA
p121
aVCMA
p122
aVCAG
p123
aVCXO
p124
aVCOP
p125
aVED
p126
aVSTZ
p127
aVCOO
p128
aVCPRT
p129
aVGLW
p130
aVCTVA
p131
aVCOST
p132
aVCOTY
p133
aVCCI
p134
aVCSX
p135
aVCMI
p136
aVCVS
p137
aVDHI
p138
aVDHR
p139
aVDRI
p140
aVDVA
p141
aVDE
p142
aVDAL
p143
aVXRAY
p144
aVDVN
p145
aVFANG
p146
aVDLR
p147
aVDFS
p148
aVDISCA
p149
aVDISCK
p150
aVDISH
p151
aVDG
p152
aVDLTR
p153
aVD
p154
aVDOV
p155
aVDOW
p156
aVDTE
p157
aVDUK
p158
aVDRE
p159
aVDD
p160
aVDXC
p161
aVETFC
p162
aVEMN
p163
aVETN
p164
aVEBAY
p165
aVECL
p166
aVEIX
p167
aVEW
p168
aVEA
p169
aVEMR
p170
aVETR
p171
aVEOG
p172
aVEFX
p173
aVEQIX
p174
aVEQR
p175
aVESS
p176
aVEL
p177
aVEVRG
p178
aVES
p179
aVRE
p180
aVEXC
p181
aVEXPE
p182
aVEXPD
p183
aVEXR
p184
aVXOM
p185
aVFFIV
p186
aVFB
p187
aVFAST
p188
aVFRT
p189
aVFDX
p190
aVFIS
p191
aVFITB
p192
aVFE
p193
aVFRC
p194
aVFISV
p195
aVFLT
p196
aVFLIR
p197
aVFLS
p198
aVFMC
p199
aVF
p200
aVFTNT
p201
aVFTV
p202
aVFBHS
p203
aVFOXA
p204
aVFOX
p205
aVBEN
p206
aVFCX
p207
aVGPS
p208
aVGRMN
p209
aVIT
p210
aVGD
p211
aVGE
p212
aVGIS
p213
aVGM
p214
aVGPC
p215
aVGILD
p216
aVGL
p217
aVGPN
p218
aVGS
p219
aVGWW
p220
aVHRB
p221
aVHAL
p222
aVHBI
p223
aVHOG
p224
aVHIG
p225
aVHAS
p226
aVHCA
p227
aVPEAK
p228
aVHP
p229
aVHSIC
p230
aVHSY
p231
aVHES
p232
aVHPE
p233
aVHLT
p234
aVHFC
p235
aVHOLX
p236
aVHD
p237
aVHON
p238
aVHRL
p239
aVHST
p240
aVHWM
p241
aVHPQ
p242
aVHUM
p243
aVHBAN
p244
aVHII
p245
aVIEX
p246
aVIDXX
p247
aVINFO
p248
aVITW
p249
aVILMN
p250
aVINCY
p251
aVIR
p252
aVINTC
p253
aVICE
p254
aVIBM
p255
aVIP
p256
aVIPG
p257
aVIFF
p258
aVINTU
p259
aVISRG
p260
aVIVZ
p261
aVIPGP
p262
aVIQV
p263
aVIRM
p264
aVJKHY
p265
aVJ
p266
aVJBHT
p267
aVSJM
p268
aVJNJ
p269
aVJCI
p270
aVJPM
p271
aVJNPR
p272
aVKSU
p273
aVK
p274
aVKEY
p275
aVKEYS
p276
aVKMB
p277
aVKIM
p278
aVKMI
p279
aVKLAC
p280
aVKSS
p281
aVKHC
p282
aVKR
p283
aVLB
p284
aVLHX
p285
aVLH
p286
aVLRCX
p287
aVLW
p288
aVLVS
p289
aVLEG
p290
aVLDOS
p291
aVLEN
p292
aVLLY
p293
aVLNC
p294
aVLIN
p295
aVLYV
p296
aVLKQ
p297
aVLMT
p298
aVL
p299
aVLOW
p300
aVLYB
p301
aVMTB
p302
aVMRO
p303
aVMPC
p304
aVMKTX
p305
aVMAR
p306
aVMMC
p307
aVMLM
p308
aVMAS
p309
aVMA
p310
aVMKC
p311
aVMXIM
p312
aVMCD
p313
aVMCK
p314
aVMDT
p315
aVMRK
p316
aVMET
p317
aVMTD
p318
aVMGM
p319
aVMCHP
p320
aVMU
p321
aVMSFT
p322
aVMAA
p323
aVMHK
p324
aVTAP
p325
aVMDLZ
p326
aVMNST
p327
aVMCO
p328
aVMS
p329
aVMOS
p330
aVMSI
p331
aVMSCI
p332
aVMYL
p333
aVNDAQ
p334
aVNOV
p335
aVNTAP
p336
aVNFLX
p337
aVNWL
p338
aVNEM
p339
aVNWSA
p340
aVNWS
p341
aVNEE
p342
aVNLSN
p343
aVNKE
p344
aVNI
p345
aVNBL
p346
aVJWN
p347
aVNSC
p348
aVNTRS
p349
aVNOC
p350
aVNLOK
p351
aVNCLH
p352
aVNRG
p353
aVNUE
p354
aVNVDA
p355
aVNVR
p356
aVORLY
p357
aVOXY
p358
aVODFL
p359
aVOMC
p360
aVOKE
p361
aVORCL
p362
aVOTIS
p363
aVPCAR
p364
aVPKG
p365
aVPH
p366
aVPAYX
p367
aVPAYC
p368
aVPYPL
p369
aVPNR
p370
aVPBCT
p371
aVPEP
p372
aVPKI
p373
aVPRGO
p374
aVPFE
p375
aVPM
p376
aVPSX
p377
aVPNW
p378
aVPXD
p379
aVPNC
p380
aVPPG
p381
aVPPL
p382
aVPFG
p383
aVPG
p384
aVPGR
p385
aVPLD
p386
aVPRU
p387
aVPEG
p388
aVPSA
p389
aVPHM
p390
aVPVH
p391
aVQRVO
p392
aVPWR
p393
aVQCOM
p394
aVDGX
p395
aVRL
p396
aVRJF
p397
aVRTX
p398
aVO
p399
aVREG
p400
aVREGN
p401
aVRF
p402
aVRSG
p403
aVRMD
p404
aVRHI
p405
aVROK
p406
aVROL
p407
aVROP
p408
aVROST
p409
aVRCL
p410
aVSPGI
p411
aVCRM
p412
aVSBAC
p413
aVSLB
p414
aVSTX
p415
aVSEE
p416
aVSRE
p417
aVNOW
p418
aVSHW
p419
aVSPG
p420
aVSWKS
p421
aVSLG
p422
aVSNA
p423
aVSO
p424
aVLUV
p425
aVSWK
p426
aVSBUX
p427
aVSTT
p428
aVSTE
p429
aVSYK
p430
aVSIVB
p431
aVSYF
p432
aVSNPS
p433
aVSYY
p434
aVTMUS
p435
aVTROW
p436
aVTTWO
p437
aVTPR
p438
aVTGT
p439
aVTEL
p440
aVFTI
p441
aVTFX
p442
aVTXN
p443
aVTXT
p444
aVTMO
p445
aVTIF
p446
aVTJX
p447
aVTSCO
p448
aVTT
p449
aVTDG
p450
aVTRV
p451
aVTFC
p452
aVTWTR
p453
aVTSN
p454
aVUDR
p455
aVULTA
p456
aVUSB
p457
aVUAA
p458
aVUA
p459
aVUNP
p460
aVUAL
p461
aVUNH
p462
aVUPS
p463
aVURI
p464
aVUHS
p465
aVUNM
p466
aVVFC
p467
aVVLO
p468
aVVAR
p469
aVVTR
p470
aVVRSN
p471
aVVRSK
p472
aVVZ
p473
aVVRTX
p474
aVVIAC
p475
aVV
p476
aVVNO
p477
aVVMC
p478
aVWRB
p479
aVWAB
p480
aVWMT
p481
aVWBA
p482
aVDIS
p483
aVWM
p484
aVWAT
p485
aVWEC
p486
aVWFC
p487
aVWELL
p488
aVWDC
p489
aVWU
p490
aVWRK
p491
aVWY
p492
aVWHR
p493
aVWMB
p494
aVWLTW
p495
aVWYNN
p496
aVXEL
p497
aVXRX
p498
aVXLNX
p499
aVXYL
p500
aVYUM
p501
aVZBRA
p502
aVZBH
p503
aVZION
p504
aVZTS
p505
a.